; Function Attrs: nounwind sspstrong uwtable
define internal range(i64 1, 8589934592) i64 @p_uid_sw_ensure(i64 noundef %0) #1 {
  %2 = trunc i64 %0 to i32
  store i1 false, ptr @under_uid_switch, align 4
  %3 = tail call fastcc i32 @rb_seteuid_core(i32 noundef %2)
  %4 = shl i64 %0, 1
  %5 = and i64 %4, 8589934590
  %6 = or disjoint i64 %5, 1
  ret i64 %6
}